target datalayout = "e-m:e-p270:32:32-p271:32:32-p272:64:64-i64:64-i128:128-f80:128-n8:16:32:64-S128"
target triple = "x86_64-pc-linux-gnu"

@.str.3 = private unnamed_addr constant [2 x i8] c"\0A\00", align 1
@.str.4 = private unnamed_addr constant [22 x i8] c"    logger [options]\0A\00", align 1
@.str.5 = private unnamed_addr constant [79 x i8] c"This command sets global logger properties, also available using command line\0A\00", align 1
@.str.6 = private unnamed_addr constant [10 x i8] c"options.\0A\00", align 1
@.str.7 = private unnamed_addr constant [15 x i8] c"    -[no]time\0A\00", align 1
@.str.8 = private unnamed_addr constant [60 x i8] c"        enable/disable display of timestamp in log output.\0A\00", align 1
@.str.9 = private unnamed_addr constant [17 x i8] c"    -[no]stderr\0A\00", align 1
@.str.10 = private unnamed_addr constant [50 x i8] c"        enable/disable logging errors to stderr.\0A\00", align 1
@.str.11 = private unnamed_addr constant [17 x i8] c"    -warn regex\0A\00", align 1
@.str.12 = private unnamed_addr constant [66 x i8] c"        print a warning for all log messages matching the regex.\0A\00", align 1
@.str.13 = private unnamed_addr constant [19 x i8] c"    -nowarn regex\0A\00", align 1
@.str.14 = private unnamed_addr constant [74 x i8] c"        if a warning message matches the regex, it is printed as regular\0A\00", align 1
@.str.15 = private unnamed_addr constant [26 x i8] c"        message instead.\0A\00", align 1
@.str.16 = private unnamed_addr constant [19 x i8] c"    -werror regex\0A\00", align 1
@.str.17 = private unnamed_addr constant [72 x i8] c"        if a warning message matches the regex, it is printed as error\0A\00", align 1
@.str.18 = private unnamed_addr constant [77 x i8] c"        message instead and the tool terminates with a nonzero return code.\0A\00", align 1
@.str.19 = private unnamed_addr constant [16 x i8] c"    -[no]debug\0A\00", align 1
@.str.20 = private unnamed_addr constant [53 x i8] c"        globally enable/disable debug log messages.\0A\00", align 1
@.str.21 = private unnamed_addr constant [29 x i8] c"    -experimental <feature>\0A\00", align 1
@.str.22 = private unnamed_addr constant [70 x i8] c"        do not print warnings for the specified experimental feature\0A\00", align 1
@.str.23 = private unnamed_addr constant [45 x i8] c"    -expect <type> <regex> <expected_count>\0A\00", align 1
@.str.24 = private unnamed_addr constant [79 x i8] c"        expect log, warning or error to appear. matched errors will terminate\0A\00", align 1
@.str.25 = private unnamed_addr constant [27 x i8] c"        with exit code 0.\0A\00", align 1
@.str.26 = private unnamed_addr constant [25 x i8] c"    -expect-no-warnings\0A\00", align 1
@.str.27 = private unnamed_addr constant [81 x i8] c"        gives error in case there is at least one warning that is not expected.\0A\00", align 1
@.str.28 = private unnamed_addr constant [21 x i8] c"    -check-expected\0A\00", align 1
@.str.29 = private unnamed_addr constant [79 x i8] c"        verifies that the patterns previously set up by -expect have actually\0A\00", align 1
@.str.30 = private unnamed_addr constant [77 x i8] c"        been met, then clears the expected log list.  If this is not called\0A\00", align 1
@.str.31 = private unnamed_addr constant [70 x i8] c"        manually, the check will happen at yosys exist time instead.\0A\00", align 1

; Function Attrs: mustprogress uwtable
define internal void @_ZN12_GLOBAL__N_110LoggerPass4helpEv(ptr noundef nonnull align 8 dereferenceable(104) %0) unnamed_addr #4 align 2 {
  %2 = alloca ptr, align 8
  store ptr %0, ptr %2, align 8
  call void (ptr, ...) @_ZN5Yosys3logEPKcz(ptr noundef @.str.3)
  call void (ptr, ...) @_ZN5Yosys3logEPKcz(ptr noundef @.str.4)
  call void (ptr, ...) @_ZN5Yosys3logEPKcz(ptr noundef @.str.3)
  call void (ptr, ...) @_ZN5Yosys3logEPKcz(ptr noundef @.str.5)
  call void (ptr, ...) @_ZN5Yosys3logEPKcz(ptr noundef @.str.6)
  call void (ptr, ...) @_ZN5Yosys3logEPKcz(ptr noundef @.str.3)
  call void (ptr, ...) @_ZN5Yosys3logEPKcz(ptr noundef @.str.7)
  call void (ptr, ...) @_ZN5Yosys3logEPKcz(ptr noundef @.str.8)
  call void (ptr, ...) @_ZN5Yosys3logEPKcz(ptr noundef @.str.3)
  call void (ptr, ...) @_ZN5Yosys3logEPKcz(ptr noundef @.str.9)
  call void (ptr, ...) @_ZN5Yosys3logEPKcz(ptr noundef @.str.10)
  call void (ptr, ...) @_ZN5Yosys3logEPKcz(ptr noundef @.str.3)
  call void (ptr, ...) @_ZN5Yosys3logEPKcz(ptr noundef @.str.11)
  call void (ptr, ...) @_ZN5Yosys3logEPKcz(ptr noundef @.str.12)
  call void (ptr, ...) @_ZN5Yosys3logEPKcz(ptr noundef @.str.3)
  call void (ptr, ...) @_ZN5Yosys3logEPKcz(ptr noundef @.str.13)
  call void (ptr, ...) @_ZN5Yosys3logEPKcz(ptr noundef @.str.14)
  call void (ptr, ...) @_ZN5Yosys3logEPKcz(ptr noundef @.str.15)
  call void (ptr, ...) @_ZN5Yosys3logEPKcz(ptr noundef @.str.3)
  call void (ptr, ...) @_ZN5Yosys3logEPKcz(ptr noundef @.str.16)
  call void (ptr, ...) @_ZN5Yosys3logEPKcz(ptr noundef @.str.17)
  call void (ptr, ...) @_ZN5Yosys3logEPKcz(ptr noundef @.str.18)
  call void (ptr, ...) @_ZN5Yosys3logEPKcz(ptr noundef @.str.3)
  call void (ptr, ...) @_ZN5Yosys3logEPKcz(ptr noundef @.str.19)
  call void (ptr, ...) @_ZN5Yosys3logEPKcz(ptr noundef @.str.20)
  call void (ptr, ...) @_ZN5Yosys3logEPKcz(ptr noundef @.str.3)
  call void (ptr, ...) @_ZN5Yosys3logEPKcz(ptr noundef @.str.21)
  call void (ptr, ...) @_ZN5Yosys3logEPKcz(ptr noundef @.str.22)
  call void (ptr, ...) @_ZN5Yosys3logEPKcz(ptr noundef @.str.3)
  call void (ptr, ...) @_ZN5Yosys3logEPKcz(ptr noundef @.str.23)
  call void (ptr, ...) @_ZN5Yosys3logEPKcz(ptr noundef @.str.24)
  call void (ptr, ...) @_ZN5Yosys3logEPKcz(ptr noundef @.str.25)
  call void (ptr, ...) @_ZN5Yosys3logEPKcz(ptr noundef @.str.3)
  call void (ptr, ...) @_ZN5Yosys3logEPKcz(ptr noundef @.str.26)
  call void (ptr, ...) @_ZN5Yosys3logEPKcz(ptr noundef @.str.27)
  call void (ptr, ...) @_ZN5Yosys3logEPKcz(ptr noundef @.str.3)
  call void (ptr, ...) @_ZN5Yosys3logEPKcz(ptr noundef @.str.28)
  call void (ptr, ...) @_ZN5Yosys3logEPKcz(ptr noundef @.str.29)
  call void (ptr, ...) @_ZN5Yosys3logEPKcz(ptr noundef @.str.30)
  call void (ptr, ...) @_ZN5Yosys3logEPKcz(ptr noundef @.str.31)
  call void (ptr, ...) @_ZN5Yosys3logEPKcz(ptr noundef @.str.3)
  ret void
}